; Function Attrs: mustprogress nounwind willreturn memory(argmem: readwrite, inaccessiblemem: readwrite) uwtable
define void @Mtr_DeallocNode(ptr noundef %0) local_unnamed_addr #2 {
  %.not = icmp eq ptr %0, null
  br i1 %.not, label %3, label %2

2:                                                ; preds = %1
  tail call void @free(ptr noundef nonnull %0) #13
  br label %3

3:                                                ; preds = %1, %2
  ret void
}